; Function Attrs: mustprogress noinline uwtable
define hidden noundef ptr @_ZN6google8protobuf5Arena18CreateMaybeMessageIN17opencv_tensorflow7NodeDefEJEEEPT_PS1_DpOT0_(ptr noundef %0) local_unnamed_addr #16 align 2 personality ptr @__gxx_personality_v0 {
  %2 = icmp eq ptr %0, null
  br i1 %2, label %_ZN6google8protobuf5Arena14InternalHelperIN17opencv_tensorflow7NodeDefEE3NewEv.exit, label %18

_ZN6google8protobuf5Arena14InternalHelperIN17opencv_tensorflow7NodeDefEE3NewEv.exit: ; preds = %1
  %3 = tail call noalias noundef nonnull dereferenceable(192) ptr @_Znwm(i64 noundef 192) #32
  %4 = getelementptr inbounds nuw i8, ptr %3, i64 8
  store i64 0, ptr %4, align 8, !tbaa !23
  store ptr getelementptr inbounds nuw inrange(-16, 152) (i8, ptr @_ZTVN17opencv_tensorflow7NodeDefE, i64 16), ptr %3, align 8, !tbaa !27
  %5 = getelementptr inbounds nuw i8, ptr %3, i64 16
  %6 = getelementptr inbounds nuw i8, ptr %3, i64 40
  %7 = getelementptr inbounds nuw i8, ptr %3, i64 48
  tail call void @llvm.memset.p0.i64(ptr noundef nonnull align 8 dereferenceable(24) %5, i8 0, i64 24, i1 false)
  tail call void @llvm.memset.p0.i64(ptr noundef nonnull align 8 dereferenceable(60) %7, i8 0, i64 60, i1 false)
  store ptr getelementptr inbounds nuw inrange(-16, 192) (i8, ptr @_ZTVN6google8protobuf8internal8MapFieldIN17opencv_tensorflow26NodeDef_AttrEntry_DoNotUseENSt7__cxx1112basic_stringIcSt11char_traitsIcESaIcEEENS3_9AttrValueELNS1_14WireFormatLite9FieldTypeE9ELSD_11EEE, i64 16), ptr %6, align 8, !tbaa !27
  %8 = getelementptr inbounds nuw i8, ptr %3, i64 112
  store i64 0, ptr %8, align 8, !tbaa !88
  %9 = getelementptr inbounds nuw i8, ptr %3, i64 120
  store i64 1, ptr %9, align 8, !tbaa !92
  %10 = getelementptr inbounds nuw i8, ptr %3, i64 128
  store i64 0, ptr %10, align 8, !tbaa !93
  %11 = getelementptr inbounds nuw i8, ptr %3, i64 136
  store i64 1, ptr %11, align 8, !tbaa !94
  %12 = getelementptr inbounds nuw i8, ptr %3, i64 144
  store ptr @_ZN6google8protobuf8internal17kGlobalEmptyTableE, ptr %12, align 8, !tbaa !95
  %13 = getelementptr inbounds nuw i8, ptr %3, i64 152
  store ptr null, ptr %13, align 8, !tbaa !96
  %14 = getelementptr inbounds nuw i8, ptr %3, i64 184
  store i32 0, ptr %14, align 4, !tbaa !34
  %15 = getelementptr inbounds nuw i8, ptr %3, i64 160
  store ptr @_ZN6google8protobuf8internal26fixed_address_empty_stringB5cxx11E, ptr %15, align 8, !tbaa !97
  %16 = getelementptr inbounds nuw i8, ptr %3, i64 168
  store ptr @_ZN6google8protobuf8internal26fixed_address_empty_stringB5cxx11E, ptr %16, align 8, !tbaa !97
  %17 = getelementptr inbounds nuw i8, ptr %3, i64 176
  store ptr @_ZN6google8protobuf8internal26fixed_address_empty_stringB5cxx11E, ptr %17, align 8, !tbaa !97
  br label %_ZN6google8protobuf5Arena21CreateMessageInternalIN17opencv_tensorflow7NodeDefEEEPT_PS1_.exit

18:                                               ; preds = %1
  %19 = tail call noundef ptr @_ZN6google8protobuf5Arena23AllocateAlignedWithHookEmPKSt9type_info(ptr noundef nonnull align 8 dereferenceable(32) %0, i64 noundef 192, ptr noundef nonnull @_ZTIN17opencv_tensorflow7NodeDefE)
  %20 = getelementptr inbounds nuw i8, ptr %19, i64 8
  %21 = ptrtoint ptr %0 to i64
  store i64 %21, ptr %20, align 8, !tbaa !23
  store ptr getelementptr inbounds nuw inrange(-16, 152) (i8, ptr @_ZTVN17opencv_tensorflow7NodeDefE, i64 16), ptr %19, align 8, !tbaa !27
  %22 = getelementptr inbounds nuw i8, ptr %19, i64 16
  store ptr %0, ptr %22, align 8, !tbaa !29
  %23 = getelementptr inbounds nuw i8, ptr %19, i64 24
  tail call void @llvm.memset.p0.i64(ptr noundef nonnull align 8 dereferenceable(16) %23, i8 0, i64 16, i1 false)
  %24 = getelementptr inbounds nuw i8, ptr %19, i64 40
  %25 = getelementptr inbounds nuw i8, ptr %19, i64 48
  store ptr %0, ptr %25, align 8, !tbaa !87
  %26 = getelementptr inbounds nuw i8, ptr %19, i64 56
  tail call void @llvm.memset.p0.i64(ptr noundef nonnull align 8 dereferenceable(52) %26, i8 0, i64 52, i1 false)
  store ptr getelementptr inbounds nuw inrange(-16, 192) (i8, ptr @_ZTVN6google8protobuf8internal8MapFieldIN17opencv_tensorflow26NodeDef_AttrEntry_DoNotUseENSt7__cxx1112basic_stringIcSt11char_traitsIcESaIcEEENS3_9AttrValueELNS1_14WireFormatLite9FieldTypeE9ELSD_11EEE, i64 16), ptr %24, align 8, !tbaa !27
  %27 = getelementptr inbounds nuw i8, ptr %19, i64 112
  store i64 0, ptr %27, align 8, !tbaa !88
  %28 = getelementptr inbounds nuw i8, ptr %19, i64 120
  store i64 1, ptr %28, align 8, !tbaa !92
  %29 = getelementptr inbounds nuw i8, ptr %19, i64 128
  store i64 0, ptr %29, align 8, !tbaa !93
  %30 = getelementptr inbounds nuw i8, ptr %19, i64 136
  store i64 1, ptr %30, align 8, !tbaa !94
  %31 = getelementptr inbounds nuw i8, ptr %19, i64 144
  store ptr @_ZN6google8protobuf8internal17kGlobalEmptyTableE, ptr %31, align 8, !tbaa !95
  %32 = getelementptr inbounds nuw i8, ptr %19, i64 152
  store ptr %0, ptr %32, align 8, !tbaa !96
  %33 = getelementptr inbounds nuw i8, ptr %19, i64 184
  store i32 0, ptr %33, align 4, !tbaa !34
  %34 = getelementptr inbounds nuw i8, ptr %19, i64 160
  store ptr @_ZN6google8protobuf8internal26fixed_address_empty_stringB5cxx11E, ptr %34, align 8, !tbaa !97
  %35 = getelementptr inbounds nuw i8, ptr %19, i64 168
  store ptr @_ZN6google8protobuf8internal26fixed_address_empty_stringB5cxx11E, ptr %35, align 8, !tbaa !97
  %36 = getelementptr inbounds nuw i8, ptr %19, i64 176
  store ptr @_ZN6google8protobuf8internal26fixed_address_empty_stringB5cxx11E, ptr %36, align 8, !tbaa !97
  invoke void @_ZN6google8protobuf8internal15ThreadSafeArena10AddCleanupEPvPFvS3_E(ptr noundef nonnull align 8 dereferenceable(32) %0, ptr noundef nonnull align 8 dereferenceable(192) %19, ptr noundef nonnull @_ZN17opencv_tensorflow7NodeDef9ArenaDtorEPv)
          to label %_ZN6google8protobuf5Arena21CreateMessageInternalIN17opencv_tensorflow7NodeDefEEEPT_PS1_.exit unwind label %37

37:                                               ; preds = %18
  %38 = landingpad { ptr, i32 }
          cleanup
  tail call void @_ZN6google8protobuf8internal8MapFieldIN17opencv_tensorflow26NodeDef_AttrEntry_DoNotUseENSt7__cxx1112basic_stringIcSt11char_traitsIcESaIcEEENS3_9AttrValueELNS1_14WireFormatLite9FieldTypeE9ELSD_11EED2Ev(ptr noundef nonnull align 8 dereferenceable(120) %24) #29
  tail call void @_ZN6google8protobuf16RepeatedPtrFieldINSt7__cxx1112basic_stringIcSt11char_traitsIcESaIcEEEED1Ev(ptr noundef nonnull align 8 dereferenceable(24) %22) #29
  tail call void @_ZN6google8protobuf11MessageLiteD2Ev(ptr noundef nonnull align 8 dereferenceable(192) %19) #29
  resume { ptr, i32 } %38

_ZN6google8protobuf5Arena21CreateMessageInternalIN17opencv_tensorflow7NodeDefEEEPT_PS1_.exit: ; preds = %18, %_ZN6google8protobuf5Arena14InternalHelperIN17opencv_tensorflow7NodeDefEE3NewEv.exit
  %.0.i = phi ptr [ %3, %_ZN6google8protobuf5Arena14InternalHelperIN17opencv_tensorflow7NodeDefEE3NewEv.exit ], [ %19, %18 ]
  ret ptr %.0.i
}